; Function Attrs: nounwind uwtable
define noalias ptr @H5FL_reg_calloc(ptr noundef %0) local_unnamed_addr #0 {
  %2 = load i8, ptr @H5FL_init_g, align 1, !tbaa !3, !range !7, !noundef !8
  %3 = trunc nuw i8 %2 to i1
  %4 = load i8, ptr @H5_libterm_g, align 1, !range !7
  %5 = trunc nuw i8 %4 to i1
  %6 = select i1 %3, i1 true, i1 %5
  br i1 %6, label %7, label %.thread, !prof !15

.thread:                                          ; preds = %1
  store i8 1, ptr @H5FL_init_g, align 1, !tbaa !3
  br label %10

7:                                                ; preds = %1
  %8 = xor i1 %5, true
  %9 = select i1 %3, i1 true, i1 %8
  br i1 %9, label %10, label %20, !prof !87

10:                                               ; preds = %.thread, %7
  %11 = tail call noalias ptr @H5FL_reg_malloc(ptr noundef %0)
  %12 = icmp eq ptr %11, null
  br i1 %12, label %13, label %17

13:                                               ; preds = %10
  %14 = load i64, ptr @H5E_RESOURCE_g, align 8, !tbaa !86
  %15 = load i64, ptr @H5E_NOSPACE_g, align 8, !tbaa !86
  %16 = tail call i32 (ptr, ptr, i32, i64, i64, ptr, ...) @H5E_printf_stack(ptr noundef nonnull @.str.2, ptr noundef nonnull @__func__.H5FL_reg_calloc, i32 noundef 396, i64 noundef %14, i64 noundef %15, ptr noundef nonnull @.str.5) #10
  br label %20

17:                                               ; preds = %10
  %18 = getelementptr inbounds nuw i8, ptr %0, i64 24
  %19 = load i64, ptr %18, align 8, !tbaa !72
  tail call void @llvm.memset.p0.i64(ptr nonnull align 1 %11, i8 0, i64 %19, i1 false)
  br label %20

20:                                               ; preds = %13, %17, %7
  %.0 = phi ptr [ null, %13 ], [ %11, %17 ], [ null, %7 ]
  ret ptr %.0
}